Certificate:
    Data:
        Version: 3 (0x2)
        Serial Number:
            f0:80:cd:92:c0:a7:1c:61:df:78:cc:d7:ad:17:10:f1
        Signature Algorithm: sha256WithRSAEncryption
        Issuer: CN=saroot
        Validity
            Not Before: Jun  7 17:26:55 2023 GMT
            Not After : Sep  9 17:26:55 2025 GMT
        Subject: C=TW, ST=TW, L=TAINAN, O=NCKU, CN=peterlee
        Subject Public Key Info:
            Public Key Algorithm: rsaEncryption
                RSA Public-Key: (2048 bit)
                Modulus:
                    00:9d:3d:ff:86:27:d4:ca:d6:3b:e0:55:38:e9:bc:
                    ee:9e:6e:e3:cf:97:74:83:01:c0:94:06:a6:2e:1c:
                    97:71:81:ce:e8:59:c3:9b:b9:08:d0:f0:eb:cb:ab:
                    34:c6:ed:9e:6a:41:ec:26:16:41:00:ef:64:16:69:
                    2e:46:fb:61:84:d6:6b:33:9e:4a:cc:e4:57:16:5c:
                    57:c9:16:27:30:a2:2a:3d:4b:da:11:14:20:84:11:
                    73:5f:e9:65:11:be:fc:9f:ee:7a:05:7b:a2:d7:56:
                    50:36:3e:56:2d:69:1b:db:cd:81:6a:38:8b:e6:ac:
                    92:54:70:fe:75:32:4b:7d:38:3d:e8:84:94:6c:f6:
                    c2:26:7a:bc:51:67:14:22:30:f7:bf:da:bb:55:ae:
                    90:6a:72:04:9b:f7:5e:fd:96:7d:5c:93:3e:9d:e4:
                    41:37:ea:f0:16:69:e1:f5:4e:fb:70:21:07:ec:97:
                    30:57:5a:1a:50:79:64:04:12:3a:02:c7:6c:65:47:
                    13:f8:39:9d:1c:dd:58:7b:b8:2b:e5:70:21:6f:9b:
                    fd:d4:00:de:00:61:37:ba:6a:78:ea:c7:ed:83:9e:
                    56:96:90:88:4f:2e:67:ab:d7:81:c0:f7:34:2e:e7:
                    84:8c:9b:d8:e3:c3:51:7d:0f:02:f2:95:cc:d0:46:
                    c8:5d
                Exponent: 65537 (0x10001)
        X509v3 extensions:
            X509v3 CRL Distribution Points: 

                Full Name:
                  URI:http://ca.sa/crl

            Authority Information Access: 
                CA Issuers - URI:http://ca.sa/ca

            X509v3 Basic Constraints: 
                CA:TRUE
            X509v3 Subject Key Identifier: 
                CF:78:A9:6F:E0:C3:0A:35:79:03:F8:4F:75:5D:B2:4E:BB:8E:AC:CE
            X509v3 Authority Key Identifier: 
                keyid:8A:69:2A:24:A2:32:00:96:35:B4:15:79:67:24:66:B2:50:D6:EA:09
                DirName:/CN=saroot
                serial:30:7D:C5:26:23:43:C2:B1:FE:3F:D6:5F:1B:CE:EA:9F:1E:CA:BB:E0

            X509v3 Key Usage: 
                Certificate Sign, CRL Sign
    Signature Algorithm: sha256WithRSAEncryption
         52:fb:79:b9:0d:28:26:e5:3f:7f:c3:9d:bd:1f:d4:13:4a:1e:
         82:18:f2:da:73:73:53:e8:a7:c0:59:e7:5b:77:d7:b7:9b:8a:
         b7:4c:77:03:74:74:94:2b:4a:aa:9e:cd:f2:5a:97:3c:1a:b6:
         4c:48:54:df:84:5a:44:35:db:94:b8:48:c6:b2:6c:16:62:4f:
         c4:17:d9:5b:d2:d1:e0:61:49:a9:48:ae:4c:16:29:2d:51:e2:
         4c:43:cd:52:97:7a:73:4c:1f:5b:15:4c:cf:f9:a8:c0:be:41:
         94:43:e6:45:91:d8:00:22:d9:a9:93:f9:13:b1:a0:30:d5:4f:
         8a:40:f7:6a:20:cb:5a:46:10:c6:fd:90:9d:44:a6:cf:9c:e4:
         bf:44:7f:06:78:fa:fb:40:82:ab:81:2b:81:07:df:7b:56:01:
         7d:c8:74:b6:1b:14:4d:f9:87:ba:b1:e4:d8:1d:c1:92:6f:75:
         e7:83:45:93:d0:ff:70:6e:29:ec:bf:b8:5d:97:b5:53:59:0a:
         3d:c5:24:e8:90:8a:06:bc:c1:31:ec:ba:ea:77:ad:c1:5a:8a:
         2f:05:74:82:c5:51:48:4d:d2:95:dc:b5:a4:06:b2:68:bb:ac:
         db:67:7d:14:4d:fe:7d:a4:87:1a:27:23:85:03:4b:ca:3b:b9:
         3c:6b:04:4e
-----BEGIN CERTIFICATE-----
MIIDxTCCAq2gAwIBAgIRAPCAzZLApxxh33jM160XEPEwDQYJKoZIhvcNAQELBQAw
ETEPMA0GA1UEAwwGc2Fyb290MB4XDTIzMDYwNzE3MjY1NVoXDTI1MDkwOTE3MjY1
NVowTTELMAkGA1UEBhMCVFcxCzAJBgNVBAgMAlRXMQ8wDQYDVQQHDAZUQUlOQU4x
DTALBgNVBAoMBE5DS1UxETAPBgNVBAMMCHBldGVybGVlMIIBIjANBgkqhkiG9w0B
AQEFAAOCAQ8AMIIBCgKCAQEAnT3/hifUytY74FU46bzunm7jz5d0gwHAlAamLhyX
cYHO6FnDm7kI0PDry6s0xu2eakHsJhZBAO9kFmkuRvthhNZrM55KzORXFlxXyRYn
MKIqPUvaERQghBFzX+llEb78n+56BXui11ZQNj5WLWkb282BajiL5qySVHD+dTJL
fTg96ISUbPbCJnq8UWcUIjD3v9q7Va6QanIEm/de/ZZ9XJM+neRBN+rwFmnh9U77
cCEH7JcwV1oaUHlkBBI6AsdsZUcT+DmdHN1Ye7gr5XAhb5v91ADeAGE3ump46sft
g55WlpCITy5nq9eBwPc0LueEjJvY48NRfQ8C8pXM0EbIXQIDAQABo4HbMIHYMCEG
A1UdHwQaMBgwFqAUoBKGEGh0dHA6Ly9jYS5zYS9jcmwwKwYIKwYBBQUHAQEEHzAd
MBsGCCsGAQUFBzAChg9odHRwOi8vY2Euc2EvY2EwDAYDVR0TBAUwAwEB/zAdBgNV
HQ4EFgQUz3ipb+DDCjV5A/hPdV2yTruOrM4wTAYDVR0jBEUwQ4AUimkqJKIyAJY1
tBV5ZyRmslDW6gmhFaQTMBExDzANBgNVBAMMBnNhcm9vdIIUMH3FJiNDwrH+P9Zf
G87qnx7Ku+AwCwYDVR0PBAQDAgEGMA0GCSqGSIb3DQEBCwUAA4IBAQBS+3m5DSgm
5T9/w529H9QTSh6CGPLac3NT6KfAWedbd9e3m4q3THcDdHSUK0qqns3yWpc8GrZM
SFTfhFpENduUuEjGsmwWYk/EF9lb0tHgYUmpSK5MFiktUeJMQ81Sl3pzTB9bFUzP
+ajAvkGUQ+ZFkdgAItmpk/kTsaAw1U+KQPdqIMtaRhDG/ZCdRKbPnOS/RH8GePr7
QIKrgSuBB997VgF9yHS2GxRN+Ye6seTYHcGSb3Xng0WT0P9wbinsv7hdl7VTWQo9
xSTokIoGvMEx7Lrqd63BWoovBXSCxVFITdKV3LWkBrJou6zbZ30UTf59pIcaJyOF
A0vKO7k8awRO
-----END CERTIFICATE-----

-----BEGIN CERTIFICATE-----
MIIDPDCCAiSgAwIBAgIUMH3FJiNDwrH+P9ZfG87qnx7Ku+AwDQYJKoZIhvcNAQEL
BQAwETEPMA0GA1UEAwwGc2Fyb290MB4XDTIzMDUxNTE0MzcwNVoXDTMzMDUxMjE0
MzcwNVowETEPMA0GA1UEAwwGc2Fyb290MIIBIjANBgkqhkiG9w0BAQEFAAOCAQ8A
MIIBCgKCAQEAy7FDB1mzxK7kVOnFdIlZEZ3rnepTnR1vtB5RRjfBl2qRqpW0FMVk
sWjWK7u645DPEA2bnAzgH0rS57nThGMiVD6e798T4IEjflY1XSZABujMhnCJlq2C
l1S08c0te/yvh1Dm2Kw6kS1BTrAfeqX7MILLklPu0pCGI4xg0p4J/mHdT49bhcm/
XgFDhXE/Tw29M9WlPjJomXaX6I5hL/LL8evzpxmVjCH6xulmuaumb8D3uER/5Fs1
HxiTD6n3K9bIhaKIOi6cx17NRAZAeBL+5IAhwKUFKut5oHy1HsQEjxxi63szx6OE
gjpQWIlbJxQtj3Z8iwf7ZD0NY8QvfEyEuQIDAQABo4GLMIGIMAwGA1UdEwQFMAMB
Af8wHQYDVR0OBBYEFIppKiSiMgCWNbQVeWckZrJQ1uoJMEwGA1UdIwRFMEOAFIpp
KiSiMgCWNbQVeWckZrJQ1uoJoRWkEzARMQ8wDQYDVQQDDAZzYXJvb3SCFDB9xSYj
Q8Kx/j/WXxvO6p8eyrvgMAsGA1UdDwQEAwIBBjANBgkqhkiG9w0BAQsFAAOCAQEA
IIUy4tI1fMpiTP3F6J47n0KYlR2zrQPha1zwLxFOr8eoNe9zxedrhl4WV3Igpj2c
z9DzHmbr2kiTa8Do1dNdanw4FW0JO3SIab9opAbEvzCwQlYePxBuomnZraJumSzS
jJuDPiIXa5F+B4D8w3CllCJsOC5hiudirMXSNf9DbbvPtppkImbBh9M1GM9UrkLX
nQs9gMPUrCrtJRKuj6rnHwdvKYA09JY4/6w/ekMRPXwKaaAk7+ZRG7ReF3aBQI5W
lCDgP6VmlnlHL3P6IbfHUmnrKCVVVXk4fQSXw7LdMOLoE3pnPdSlZngylhFCYvD9
9tCHSqD9ct51nnzCcpOupQ==
-----END CERTIFICATE-----
